; Function Attrs: nounwind uwtable
define dso_local void @lua_setfield(ptr noundef %0, i32 noundef %1, ptr noundef %2) local_unnamed_addr #1 {
  %4 = alloca %union.TValue, align 8
  call void @llvm.lifetime.start.p0(i64 8, ptr nonnull %4) #13
  %5 = icmp sgt i32 %1, 0
  br i1 %5, label %6, label %20

6:                                                ; preds = %3
  %7 = getelementptr inbounds nuw i8, ptr %0, i64 32
  %8 = load ptr, ptr %7, align 8, !tbaa !15
  %9 = zext nneg i32 %1 to i64
  %10 = getelementptr %union.TValue, ptr %8, i64 %9
  %11 = getelementptr i8, ptr %10, i64 -8
  %12 = getelementptr inbounds nuw i8, ptr %0, i64 40
  %13 = load ptr, ptr %12, align 8, !tbaa !14
  %14 = icmp ult ptr %11, %13
  br i1 %14, label %index2adr.exit, label %15

15:                                               ; preds = %6
  %16 = getelementptr inbounds nuw i8, ptr %0, i64 16
  %17 = load i64, ptr %16, align 8, !tbaa !21
  %18 = inttoptr i64 %17 to ptr
  %19 = getelementptr inbounds nuw i8, ptr %18, i64 248
  br label %index2adr.exit

20:                                               ; preds = %3
  %21 = icmp sgt i32 %1, -10000
  br i1 %21, label %22, label %27

22:                                               ; preds = %20
  %23 = getelementptr inbounds nuw i8, ptr %0, i64 40
  %24 = load ptr, ptr %23, align 8, !tbaa !14
  %25 = sext i32 %1 to i64
  %26 = getelementptr inbounds %union.TValue, ptr %24, i64 %25
  br label %index2adr.exit

27:                                               ; preds = %20
  switch i32 %1, label %41 [
    i32 -10002, label %28
    i32 -10000, label %36
  ]

28:                                               ; preds = %27
  %29 = getelementptr inbounds nuw i8, ptr %0, i64 16
  %30 = load i64, ptr %29, align 8, !tbaa !21
  %31 = inttoptr i64 %30 to ptr
  %32 = getelementptr inbounds nuw i8, ptr %31, i64 232
  %33 = getelementptr inbounds nuw i8, ptr %0, i64 72
  %34 = load i64, ptr %33, align 8, !tbaa !24
  %35 = or i64 %34, -1688849860263936
  store i64 %35, ptr %32, align 8, !tbaa !17
  br label %index2adr.exit

36:                                               ; preds = %27
  %37 = getelementptr inbounds nuw i8, ptr %0, i64 16
  %38 = load i64, ptr %37, align 8, !tbaa !21
  %39 = inttoptr i64 %38 to ptr
  %40 = getelementptr inbounds nuw i8, ptr %39, i64 272
  br label %index2adr.exit

41:                                               ; preds = %27
  %42 = getelementptr inbounds nuw i8, ptr %0, i64 32
  %43 = load ptr, ptr %42, align 8, !tbaa !15
  %44 = getelementptr inbounds i8, ptr %43, i64 -16
  %45 = load i64, ptr %44, align 8, !tbaa !17
  %46 = and i64 %45, 140737488355327
  %47 = inttoptr i64 %46 to ptr
  %48 = icmp eq i32 %1, -10001
  br i1 %48, label %49, label %57

49:                                               ; preds = %41
  %50 = getelementptr inbounds nuw i8, ptr %0, i64 16
  %51 = load i64, ptr %50, align 8, !tbaa !21
  %52 = inttoptr i64 %51 to ptr
  %53 = getelementptr inbounds nuw i8, ptr %52, i64 232
  %54 = getelementptr inbounds nuw i8, ptr %47, i64 16
  %55 = load i64, ptr %54, align 8, !tbaa !17
  %56 = or i64 %55, -1688849860263936
  store i64 %56, ptr %53, align 8, !tbaa !17
  br label %index2adr.exit

57:                                               ; preds = %41
  %58 = sub nuw nsw i32 -10002, %1
  %59 = getelementptr inbounds nuw i8, ptr %47, i64 11
  %60 = load i8, ptr %59, align 1, !tbaa !17
  %61 = zext i8 %60 to i32
  %.not.i = icmp samesign ugt i32 %58, %61
  br i1 %.not.i, label %67, label %62

62:                                               ; preds = %57
  %63 = getelementptr inbounds nuw i8, ptr %47, i64 48
  %64 = sub nsw i32 -10003, %1
  %65 = sext i32 %64 to i64
  %66 = getelementptr inbounds [1 x %union.TValue], ptr %63, i64 0, i64 %65
  br label %index2adr.exit

67:                                               ; preds = %57
  %68 = getelementptr inbounds nuw i8, ptr %0, i64 16
  %69 = load i64, ptr %68, align 8, !tbaa !21
  %70 = inttoptr i64 %69 to ptr
  %71 = getelementptr inbounds nuw i8, ptr %70, i64 248
  br label %index2adr.exit

index2adr.exit:                                   ; preds = %6, %15, %22, %28, %36, %49, %62, %67
  %.0.i = phi ptr [ %26, %22 ], [ %32, %28 ], [ %40, %36 ], [ %19, %15 ], [ %11, %6 ], [ %53, %49 ], [ %66, %62 ], [ %71, %67 ]
  %72 = tail call i64 @strlen(ptr noundef nonnull dereferenceable(1) %2) #15
  %73 = tail call ptr @lj_str_new(ptr noundef nonnull %0, ptr noundef nonnull %2, i64 noundef %72) #13
  %74 = ptrtoint ptr %73 to i64
  %75 = or i64 %74, -703687441776640
  store i64 %75, ptr %4, align 8, !tbaa !17
  %76 = call ptr @lj_meta_tset(ptr noundef nonnull %0, ptr noundef %.0.i, ptr noundef nonnull %4) #13
  %.not = icmp eq ptr %76, null
  %77 = getelementptr inbounds nuw i8, ptr %0, i64 40
  %78 = load ptr, ptr %77, align 8, !tbaa !14
  br i1 %.not, label %82, label %79

79:                                               ; preds = %index2adr.exit
  %80 = getelementptr inbounds i8, ptr %78, i64 -8
  store ptr %80, ptr %77, align 8, !tbaa !14
  %81 = load i64, ptr %80, align 8, !tbaa !17
  store i64 %81, ptr %76, align 8, !tbaa !17
  br label %89

82:                                               ; preds = %index2adr.exit
  %83 = getelementptr inbounds nuw i8, ptr %78, i64 16
  %84 = getelementptr inbounds i8, ptr %78, i64 -40
  %85 = load i64, ptr %84, align 8, !tbaa !17
  store i64 %85, ptr %83, align 8, !tbaa !17
  %86 = getelementptr inbounds nuw i8, ptr %78, i64 24
  store ptr %86, ptr %77, align 8, !tbaa !14
  call void @lj_vm_call(ptr noundef nonnull %0, ptr noundef %78, i32 noundef 1) #13
  %87 = load ptr, ptr %77, align 8, !tbaa !14
  %88 = getelementptr inbounds i8, ptr %87, i64 -24
  store ptr %88, ptr %77, align 8, !tbaa !14
  br label %89

89:                                               ; preds = %82, %79
  call void @llvm.lifetime.end.p0(i64 8, ptr nonnull %4) #13
  ret void
}